target datalayout = "e-m:e-p270:32:32-p271:32:32-p272:64:64-i64:64-i128:128-f80:128-n8:16:32:64-S128"
target triple = "x86_64-unknown-linux-gnu"

%"class.std::basic_istream" = type { ptr, i64, %"class.std::basic_ios" }
%"class.std::basic_ios" = type { %"class.std::ios_base", ptr, i8, i8, ptr, ptr, ptr, ptr }
%"class.std::ios_base" = type { ptr, i64, i64, i32, i32, i32, ptr, %"struct.std::ios_base::_Words", [8 x %"struct.std::ios_base::_Words"], i32, ptr, %"class.std::locale" }
%"struct.std::ios_base::_Words" = type { ptr, i64 }
%"class.std::locale" = type { ptr }
%"class.std::basic_ostream" = type { ptr, %"class.std::basic_ios" }
%class.veloxtpFlexLexer = type <{ %class.FlexLexer.base, i32, i32, [4 x i8], ptr, %"class.std::basic_istream", %"class.std::basic_ostream", i8, [3 x i8], i32, ptr, i32, i32, i32, [4 x i8], i64, i64, ptr, i32, [4 x i8], ptr, ptr, ptr, ptr, ptr, i32, i32, i32, i32, i32, i32, i32, [4 x i8] }>
%class.FlexLexer.base = type <{ ptr, ptr, i32, i32, i32 }>
%class.FlexLexer = type <{ ptr, ptr, i32, i32, i32, [4 x i8] }>
%struct.yy_buffer_state = type { ptr, ptr, ptr, i32, i32, i32, i32, i32, i32, i32, i32, i32 }

; Function Attrs: mustprogress uwtable
define void @_ZN16veloxtpFlexLexer20yy_load_buffer_stateEv(ptr noundef nonnull align 8 dereferenceable(732) %this) #5 align 2 {
entry:
  %this.addr = alloca ptr, align 8
  store ptr %this, ptr %this.addr, align 8
  %this1 = load ptr, ptr %this.addr, align 8
  %yy_buffer_stack = getelementptr inbounds %class.veloxtpFlexLexer, ptr %this1, i32 0, i32 17
  %0 = load ptr, ptr %yy_buffer_stack, align 8
  %yy_buffer_stack_top = getelementptr inbounds %class.veloxtpFlexLexer, ptr %this1, i32 0, i32 15
  %1 = load i64, ptr %yy_buffer_stack_top, align 8
  %arrayidx = getelementptr inbounds ptr, ptr %0, i64 %1
  %2 = load ptr, ptr %arrayidx, align 8
  %yy_n_chars = getelementptr inbounds %struct.yy_buffer_state, ptr %2, i32 0, i32 4
  %3 = load i32, ptr %yy_n_chars, align 4
  %yy_n_chars2 = getelementptr inbounds %class.veloxtpFlexLexer, ptr %this1, i32 0, i32 9
  store i32 %3, ptr %yy_n_chars2, align 4
  %yy_buffer_stack3 = getelementptr inbounds %class.veloxtpFlexLexer, ptr %this1, i32 0, i32 17
  %4 = load ptr, ptr %yy_buffer_stack3, align 8
  %yy_buffer_stack_top4 = getelementptr inbounds %class.veloxtpFlexLexer, ptr %this1, i32 0, i32 15
  %5 = load i64, ptr %yy_buffer_stack_top4, align 8
  %arrayidx5 = getelementptr inbounds ptr, ptr %4, i64 %5
  %6 = load ptr, ptr %arrayidx5, align 8
  %yy_buf_pos = getelementptr inbounds %struct.yy_buffer_state, ptr %6, i32 0, i32 2
  %7 = load ptr, ptr %yy_buf_pos, align 8
  %yy_c_buf_p = getelementptr inbounds %class.veloxtpFlexLexer, ptr %this1, i32 0, i32 10
  store ptr %7, ptr %yy_c_buf_p, align 8
  %yytext = getelementptr inbounds %class.FlexLexer, ptr %this1, i32 0, i32 1
  store ptr %7, ptr %yytext, align 8
  %yyin = getelementptr inbounds %class.veloxtpFlexLexer, ptr %this1, i32 0, i32 5
  %vtable = load ptr, ptr %yyin, align 8
  %vbase.offset.ptr = getelementptr i8, ptr %vtable, i64 -24
  %vbase.offset = load i64, ptr %vbase.offset.ptr, align 8
  %add.ptr = getelementptr inbounds i8, ptr %yyin, i64 %vbase.offset
  %yy_buffer_stack6 = getelementptr inbounds %class.veloxtpFlexLexer, ptr %this1, i32 0, i32 17
  %8 = load ptr, ptr %yy_buffer_stack6, align 8
  %yy_buffer_stack_top7 = getelementptr inbounds %class.veloxtpFlexLexer, ptr %this1, i32 0, i32 15
  %9 = load i64, ptr %yy_buffer_stack_top7, align 8
  %arrayidx8 = getelementptr inbounds ptr, ptr %8, i64 %9
  %10 = load ptr, ptr %arrayidx8, align 8
  %yy_input_file = getelementptr inbounds %struct.yy_buffer_state, ptr %10, i32 0, i32 0
  %11 = load ptr, ptr %yy_input_file, align 8
  %call = call noundef ptr @_ZNSt9basic_iosIcSt11char_traitsIcEE5rdbufEPSt15basic_streambufIcS1_E(ptr noundef nonnull align 8 dereferenceable(264) %add.ptr, ptr noundef %11)
  %yy_c_buf_p9 = getelementptr inbounds %class.veloxtpFlexLexer, ptr %this1, i32 0, i32 10
  %12 = load ptr, ptr %yy_c_buf_p9, align 8
  %13 = load i8, ptr %12, align 1
  %yy_hold_char = getelementptr inbounds %class.veloxtpFlexLexer, ptr %this1, i32 0, i32 7
  store i8 %13, ptr %yy_hold_char, align 8
  ret void
}

; Function Attrs: mustprogress uwtable
define void @_ZN16veloxtpFlexLexer18yypop_buffer_stateEv(ptr noundef nonnull align 8 dereferenceable(732) %this) #5 align 2 {
entry:
  %this.addr = alloca ptr, align 8
  store ptr %this, ptr %this.addr, align 8
  %this1 = load ptr, ptr %this.addr, align 8
  %yy_buffer_stack = getelementptr inbounds %class.veloxtpFlexLexer, ptr %this1, i32 0, i32 17
  %0 = load ptr, ptr %yy_buffer_stack, align 8
  %tobool = icmp ne ptr %0, null
  br i1 %tobool, label %cond.true, label %cond.false

cond.true:                                        ; preds = %entry
  %yy_buffer_stack2 = getelementptr inbounds %class.veloxtpFlexLexer, ptr %this1, i32 0, i32 17
  %1 = load ptr, ptr %yy_buffer_stack2, align 8
  %yy_buffer_stack_top = getelementptr inbounds %class.veloxtpFlexLexer, ptr %this1, i32 0, i32 15
  %2 = load i64, ptr %yy_buffer_stack_top, align 8
  %arrayidx = getelementptr inbounds ptr, ptr %1, i64 %2
  %3 = load ptr, ptr %arrayidx, align 8
  br label %cond.end

cond.false:                                       ; preds = %entry
  br label %cond.end

cond.end:                                         ; preds = %cond.false, %cond.true
  %cond = phi ptr [ %3, %cond.true ], [ null, %cond.false ]
  %tobool3 = icmp ne ptr %cond, null
  br i1 %tobool3, label %if.end, label %if.then

if.then:                                          ; preds = %cond.end
  br label %if.end31

if.end:                                           ; preds = %cond.end
  %yy_buffer_stack4 = getelementptr inbounds %class.veloxtpFlexLexer, ptr %this1, i32 0, i32 17
  %4 = load ptr, ptr %yy_buffer_stack4, align 8
  %tobool5 = icmp ne ptr %4, null
  br i1 %tobool5, label %cond.true6, label %cond.false10

cond.true6:                                       ; preds = %if.end
  %yy_buffer_stack7 = getelementptr inbounds %class.veloxtpFlexLexer, ptr %this1, i32 0, i32 17
  %5 = load ptr, ptr %yy_buffer_stack7, align 8
  %yy_buffer_stack_top8 = getelementptr inbounds %class.veloxtpFlexLexer, ptr %this1, i32 0, i32 15
  %6 = load i64, ptr %yy_buffer_stack_top8, align 8
  %arrayidx9 = getelementptr inbounds ptr, ptr %5, i64 %6
  %7 = load ptr, ptr %arrayidx9, align 8
  br label %cond.end11

cond.false10:                                     ; preds = %if.end
  br label %cond.end11

cond.end11:                                       ; preds = %cond.false10, %cond.true6
  %cond12 = phi ptr [ %7, %cond.true6 ], [ null, %cond.false10 ]
  %vtable = load ptr, ptr %this1, align 8
  %vfn = getelementptr inbounds ptr, ptr %vtable, i64 5
  %8 = load ptr, ptr %vfn, align 8
  call void %8(ptr noundef nonnull align 8 dereferenceable(732) %this1, ptr noundef %cond12)
  %yy_buffer_stack13 = getelementptr inbounds %class.veloxtpFlexLexer, ptr %this1, i32 0, i32 17
  %9 = load ptr, ptr %yy_buffer_stack13, align 8
  %yy_buffer_stack_top14 = getelementptr inbounds %class.veloxtpFlexLexer, ptr %this1, i32 0, i32 15
  %10 = load i64, ptr %yy_buffer_stack_top14, align 8
  %arrayidx15 = getelementptr inbounds ptr, ptr %9, i64 %10
  store ptr null, ptr %arrayidx15, align 8
  %yy_buffer_stack_top16 = getelementptr inbounds %class.veloxtpFlexLexer, ptr %this1, i32 0, i32 15
  %11 = load i64, ptr %yy_buffer_stack_top16, align 8
  %cmp = icmp ugt i64 %11, 0
  br i1 %cmp, label %if.then17, label %if.end19

if.then17:                                        ; preds = %cond.end11
  %yy_buffer_stack_top18 = getelementptr inbounds %class.veloxtpFlexLexer, ptr %this1, i32 0, i32 15
  %12 = load i64, ptr %yy_buffer_stack_top18, align 8
  %dec = add i64 %12, -1
  store i64 %dec, ptr %yy_buffer_stack_top18, align 8
  br label %if.end19

if.end19:                                         ; preds = %if.then17, %cond.end11
  %yy_buffer_stack20 = getelementptr inbounds %class.veloxtpFlexLexer, ptr %this1, i32 0, i32 17
  %13 = load ptr, ptr %yy_buffer_stack20, align 8
  %tobool21 = icmp ne ptr %13, null
  br i1 %tobool21, label %cond.true22, label %cond.false26

cond.true22:                                      ; preds = %if.end19
  %yy_buffer_stack23 = getelementptr inbounds %class.veloxtpFlexLexer, ptr %this1, i32 0, i32 17
  %14 = load ptr, ptr %yy_buffer_stack23, align 8
  %yy_buffer_stack_top24 = getelementptr inbounds %class.veloxtpFlexLexer, ptr %this1, i32 0, i32 15
  %15 = load i64, ptr %yy_buffer_stack_top24, align 8
  %arrayidx25 = getelementptr inbounds ptr, ptr %14, i64 %15
  %16 = load ptr, ptr %arrayidx25, align 8
  br label %cond.end27

cond.false26:                                     ; preds = %if.end19
  br label %cond.end27

cond.end27:                                       ; preds = %cond.false26, %cond.true22
  %cond28 = phi ptr [ %16, %cond.true22 ], [ null, %cond.false26 ]
  %tobool29 = icmp ne ptr %cond28, null
  br i1 %tobool29, label %if.then30, label %if.end31

if.then30:                                        ; preds = %cond.end27
  call void @_ZN16veloxtpFlexLexer20yy_load_buffer_stateEv(ptr noundef nonnull align 8 dereferenceable(732) %this1)
  %yy_did_buffer_switch_on_eof = getelementptr inbounds %class.veloxtpFlexLexer, ptr %this1, i32 0, i32 13
  store i32 1, ptr %yy_did_buffer_switch_on_eof, align 8
  br label %if.end31

if.end31:                                         ; preds = %if.then30, %cond.end27, %if.then
  ret void
}