; Function Attrs: mustprogress uwtable
define void @_ZN16veloxtpFlexLexer18yypop_buffer_stateEv(ptr noundef nonnull align 8 dereferenceable(732) %this) local_unnamed_addr #4 align 2 {
entry:
  %yy_buffer_stack = getelementptr inbounds i8, ptr %this, i64 648
  %0 = load ptr, ptr %yy_buffer_stack, align 8
  %tobool.not = icmp eq ptr %0, null
  br i1 %tobool.not, label %if.end31, label %cond.true

cond.true:                                        ; preds = %entry
  %yy_buffer_stack_top = getelementptr inbounds i8, ptr %this, i64 632
  %1 = load i64, ptr %yy_buffer_stack_top, align 8
  %arrayidx = getelementptr inbounds ptr, ptr %0, i64 %1
  %2 = load ptr, ptr %arrayidx, align 8
  %3 = icmp eq ptr %2, null
  br i1 %3, label %if.end31, label %cond.end11

cond.end11:                                       ; preds = %cond.true
  %vtable = load ptr, ptr %this, align 8
  %vfn = getelementptr inbounds i8, ptr %vtable, i64 40
  %4 = load ptr, ptr %vfn, align 8
  tail call void %4(ptr noundef nonnull align 8 dereferenceable(732) %this, ptr noundef nonnull %2)
  %5 = load ptr, ptr %yy_buffer_stack, align 8
  %6 = load i64, ptr %yy_buffer_stack_top, align 8
  %arrayidx15 = getelementptr inbounds ptr, ptr %5, i64 %6
  store ptr null, ptr %arrayidx15, align 8
  %7 = load i64, ptr %yy_buffer_stack_top, align 8
  %cmp.not = icmp eq i64 %7, 0
  br i1 %cmp.not, label %if.end19, label %if.then17

if.then17:                                        ; preds = %cond.end11
  %dec = add i64 %7, -1
  store i64 %dec, ptr %yy_buffer_stack_top, align 8
  br label %if.end19

if.end19:                                         ; preds = %if.then17, %cond.end11
  %8 = phi i64 [ %dec, %if.then17 ], [ 0, %cond.end11 ]
  %9 = load ptr, ptr %yy_buffer_stack, align 8
  %tobool21.not = icmp eq ptr %9, null
  br i1 %tobool21.not, label %if.end31, label %cond.true22

cond.true22:                                      ; preds = %if.end19
  %arrayidx25 = getelementptr inbounds ptr, ptr %9, i64 %8
  %10 = load ptr, ptr %arrayidx25, align 8
  %11 = icmp eq ptr %10, null
  br i1 %11, label %if.end31, label %if.then30

if.then30:                                        ; preds = %cond.true22
  %yy_n_chars.i = getelementptr inbounds i8, ptr %10, i64 28
  %12 = load i32, ptr %yy_n_chars.i, align 4
  %yy_n_chars2.i = getelementptr inbounds i8, ptr %this, i64 604
  store i32 %12, ptr %yy_n_chars2.i, align 4
  %13 = load ptr, ptr %arrayidx25, align 8
  %yy_buf_pos.i = getelementptr inbounds i8, ptr %13, i64 16
  %14 = load ptr, ptr %yy_buf_pos.i, align 8
  %yy_c_buf_p.i = getelementptr inbounds i8, ptr %this, i64 608
  store ptr %14, ptr %yy_c_buf_p.i, align 8
  %yytext.i = getelementptr inbounds i8, ptr %this, i64 8
  store ptr %14, ptr %yytext.i, align 8
  %yyin.i = getelementptr inbounds i8, ptr %this, i64 48
  %vtable.i = load ptr, ptr %yyin.i, align 8
  %vbase.offset.ptr.i = getelementptr i8, ptr %vtable.i, i64 -24
  %vbase.offset.i = load i64, ptr %vbase.offset.ptr.i, align 8
  %add.ptr.i = getelementptr inbounds i8, ptr %yyin.i, i64 %vbase.offset.i
  %15 = load ptr, ptr %arrayidx25, align 8
  %16 = load ptr, ptr %15, align 8
  %call.i = tail call noundef ptr @_ZNSt9basic_iosIcSt11char_traitsIcEE5rdbufEPSt15basic_streambufIcS1_E(ptr noundef nonnull align 8 dereferenceable(264) %add.ptr.i, ptr noundef %16)
  %17 = load ptr, ptr %yy_c_buf_p.i, align 8
  %18 = load i8, ptr %17, align 1
  %yy_hold_char.i = getelementptr inbounds i8, ptr %this, i64 600
  store i8 %18, ptr %yy_hold_char.i, align 8
  %yy_did_buffer_switch_on_eof = getelementptr inbounds i8, ptr %this, i64 624
  store i32 1, ptr %yy_did_buffer_switch_on_eof, align 8
  br label %if.end31

if.end31:                                         ; preds = %if.end19, %entry, %cond.true, %if.then30, %cond.true22
  ret void
}